; Function Attrs: mustprogress uwtable
define void @_ZN12PacketDialog26viewVisibilityStateChangedEi(ptr nocapture noundef nonnull readonly align 8 dereferenceable(968) %0, i32 noundef %1) #0 align 2 {
  %3 = getelementptr inbounds i8, ptr %0, i64 184
  %4 = load ptr, ptr %3, align 8
  %5 = icmp eq i32 %1, 2
  %6 = load ptr, ptr %4, align 8
  %7 = getelementptr inbounds i8, ptr %6, i64 104
  %8 = load ptr, ptr %7, align 8
  tail call void %8(ptr noundef nonnull align 8 dereferenceable(40) %4, i1 noundef zeroext %5)
  %9 = getelementptr inbounds i8, ptr %0, i64 136
  %10 = load ptr, ptr %9, align 8
  %11 = getelementptr inbounds i8, ptr %10, i64 48
  %12 = load ptr, ptr %11, align 8
  tail call void @_ZN7QWidget10setEnabledEb(ptr noundef nonnull align 8 dereferenceable(40) %12, i1 noundef zeroext %5)
  %13 = zext i1 %5 to i32
  store i32 %13, ptr getelementptr inbounds (%struct._e_prefs, ptr @prefs, i64 0, i32 54), align 8
  tail call void @prefs_main_write()
  ret void
}